target datalayout = "e-m:e-p270:32:32-p271:32:32-p272:64:64-i64:64-i128:128-f80:128-n8:16:32:64-S128"
target triple = "x86_64-pc-linux-gnu"

%union.pthread_mutex_t = type { %struct.__pthread_mutex_s }
%struct.__pthread_mutex_s = type { i32, i32, i32, i32, i32, i16, i16, %struct.__pthread_internal_list }
%struct.__pthread_internal_list = type { ptr, ptr }

@item_locks = internal global ptr null, align 8
@item_lock_hashpower = internal global i32 0, align 4

; Function Attrs: nounwind uwtable
define dso_local void @item_unlock(i32 noundef %0) #0 {
  %2 = alloca i32, align 4
  store i32 %0, ptr %2, align 4, !tbaa !4
  %3 = load ptr, ptr @item_locks, align 8, !tbaa !8
  %4 = load i32, ptr %2, align 4, !tbaa !4
  %5 = zext i32 %4 to i64
  %6 = load i32, ptr @item_lock_hashpower, align 4, !tbaa !4
  %7 = zext i32 %6 to i64
  %8 = shl i64 1, %7
  %9 = sub i64 %8, 1
  %10 = and i64 %5, %9
  %11 = getelementptr inbounds nuw %union.pthread_mutex_t, ptr %3, i64 %10
  %12 = call i32 @pthread_mutex_unlock(ptr noundef %11) #8
  ret void
}