; Function Attrs: nounwind uwtable
define dso_local void @item_unlock(i32 noundef %0) local_unnamed_addr #0 {
  %2 = load ptr, ptr @item_locks, align 8, !tbaa !4
  %3 = zext i32 %0 to i64
  %4 = load i32, ptr @item_lock_hashpower, align 4, !tbaa !8
  %5 = zext nneg i32 %4 to i64
  %notmask = shl nsw i64 -1, %5
  %6 = xor i64 %notmask, -1
  %7 = and i64 %6, %3
  %8 = getelementptr inbounds nuw %union.pthread_mutex_t, ptr %2, i64 %7
  %9 = tail call i32 @pthread_mutex_unlock(ptr noundef %8) #15
  ret void
}